BL51 BANKED LINKER/LOCATER V6.22                                                        05/28/2018  10:09:17  PAGE 1


BL51 BANKED LINKER/LOCATER V6.22, INVOKED BY:
C:\KEIL\C51\BIN\BL51.EXE STARTUP.obj, main.obj TO teste_sdcc RAMSIZE (256)


MEMORY MODEL: SMALL


INPUT MODULES INCLUDED:
  STARTUP.obj (?C_STARTUP)
  main.obj (MAIN)
  C:\KEIL\C51\LIB\C51S.LIB (?C_INIT)
  C:\KEIL\C51\LIB\C51S.LIB (?C?SCDIV)
  C:\KEIL\C51\LIB\C51S.LIB (?C?CLDPTR)
  C:\KEIL\C51\LIB\C51S.LIB (?C?CLDOPTR)
  C:\KEIL\C51\LIB\C51S.LIB (?C?CSTPTR)
  C:\KEIL\C51\LIB\C51S.LIB (?C?CSTOPTR)
  C:\KEIL\C51\LIB\C51S.LIB (?C?IMUL)
  C:\KEIL\C51\LIB\C51S.LIB (?C?OFFXADD)
  C:\KEIL\C51\LIB\C51S.LIB (?C?CCASE)


LINK MAP OF MODULE:  teste_sdcc (?C_STARTUP)


            TYPE    BASE      LENGTH    RELOCATION   SEGMENT NAME
            -----------------------------------------------------

            * * * * * * *   D A T A   M E M O R Y   * * * * * * *
            REG     0000H     0008H     ABSOLUTE     "REG BANK 0"
            DATA    0008H     003BH     UNIT         ?DT?MAIN
            DATA    0043H     0024H     UNIT         ?DT?VARREDURA_CANDIDATOS?MAIN
            DATA    0067H     0010H     UNIT         _DATA_GROUP_
            DATA    0077H     0009H     UNIT         ?DT?_COMPARA_STRING?MAIN
            IDATA   0080H     001EH     UNIT         ?ID?MAIN
            IDATA   009EH     0001H     UNIT         ?STACK

            * * * * * * *  X D A T A   M E M O R Y  * * * * * * *
            XDATA   0000H     0366H     UNIT         ?XD?MAIN

            * * * * * * *   C O D E   M E M O R Y   * * * * * * *
            CODE    0000H     0003H     ABSOLUTE     
                    0003H     0020H                  *** GAP ***
            CODE    0023H     0003H     ABSOLUTE     
                    0026H     0005H                  *** GAP ***
            CODE    002BH     0003H     ABSOLUTE     
                    002EH     07D2H                  *** GAP ***
            CODE    0800H     028AH     UNIT         ?PR?VARREDURA_CANDIDATOS?MAIN
            CODE    0A8AH     0160H     UNIT         ?PR?ENVIA_BOLETIM?MAIN
            CODE    0BEAH     013BH     UNIT         ?PR?INICIALIZA_STRUCTS?MAIN
            CODE    0D25H     0108H     UNIT         ?PR?MAIN?MAIN
            CODE    0E2DH     00E8H     UNIT         ?CO?MAIN
            CODE    0F15H     00E0H     UNIT         ?C?LIB_CODE
            CODE    0FF5H     00D2H     UNIT         ?PR?VARREDURA?MAIN
            CODE    10C7H     008DH     UNIT         ?PR?TRATA_INTERRUPCAO_SERIAL?MAIN
            CODE    1154H     008CH     UNIT         ?C_C51STARTUP
            CODE    11E0H     007AH     UNIT         ?PR?TRATA_DADOS?MAIN
            CODE    125AH     0071H     UNIT         ?PR?_COMPARA_STRING?MAIN
            CODE    12CBH     0070H     UNIT         ?PR?_TRANSICAO_ESTADO?MAIN
BL51 BANKED LINKER/LOCATER V6.22                                                      05/28/2018  10:09:17  PAGE 2


            CODE    133BH     005BH     UNIT         ?PR?LE_PARAMETROS?MAIN
            CODE    1396H     0051H     UNIT         ?PR?SOUND_BUZZER_VOTO?MAIN
            CODE    13E7H     004FH     UNIT         ?PR?_ESCREVE_SERIAL?MAIN
            CODE    1436H     003EH     UNIT         ?PR?ATUALIZA_RELOGIO?MAIN
            CODE    1474H     0039H     UNIT         ?PR?_NUMBER_TO_CHAR?MAIN
            CODE    14ADH     0038H     UNIT         ?PR?_COPIA_STRING?MAIN
            CODE    14E5H     0032H     UNIT         ?PR?_CLEAR_STRING?MAIN
            CODE    1517H     0030H     UNIT         ?PR?SOUND_BUZZER_TECLADO?MAIN
            CODE    1547H     002FH     UNIT         ?PR?_INICIALIZA_STRING?MAIN
            CODE    1576H     002DH     UNIT         ?PR?_LE_NUMERO?MAIN
            CODE    15A3H     0026H     UNIT         ?PR?_ESCREVE_MENSAGEM?MAIN
            CODE    15C9H     0024H     UNIT         ?PR?_SOLICITA_SENADOR?MAIN
            CODE    15EDH     0024H     UNIT         ?PR?_SOLICITA_GOVERNADOR?MAIN
            CODE    1611H     0024H     UNIT         ?PR?_SOLICITA_PRESIDENTE?MAIN
            CODE    1635H     0022H     UNIT         ?C_INITSEG
            CODE    1657H     0020H     UNIT         ?PR?_LEN_STRING?MAIN
            CODE    1677H     001BH     UNIT         ?PR?CLEAR_FIFO?MAIN
            CODE    1692H     001BH     UNIT         ?PR?CLEAR_PACOTE?MAIN
            CODE    16ADH     001AH     UNIT         ?PR?LCD_INIT?MAIN
            CODE    16C7H     0018H     UNIT         ?PR?ATRASO_CLEAR?MAIN
            CODE    16DFH     0016H     UNIT         ?PR?ATRASO_1M?MAIN
            CODE    16F5H     0016H     UNIT         ?PR?CONFIGURA_SERIAL?MAIN
            CODE    170BH     0015H     UNIT         ?PR?ATRASO?MAIN
            CODE    1720H     0014H     UNIT         ?PR?_DEBOUNCING?MAIN
            CODE    1734H     0014H     UNIT         ?PR?CONFIGURA_RELOGIO?MAIN
            CODE    1748H     000FH     UNIT         ?PR?_MAIOR?MAIN
            CODE    1757H     000EH     UNIT         ?PR?LE_TECLADO?MAIN
            CODE    1765H     000CH     UNIT         ?PR?_ESCREVE_LCD?MAIN
            CODE    1771H     000BH     UNIT         ?PR?_ESCREVE_COMANDO?MAIN
            CODE    177CH     0008H     UNIT         ?PR?CLEAR_LCD?MAIN



OVERLAY MAP OF MODULE:   teste_sdcc (?C_STARTUP)


SEGMENT                                     DATA_GROUP 
  +--> CALLED SEGMENT                     START    LENGTH
---------------------------------------------------------
?C_C51STARTUP                             -----    -----
  +--> ?PR?MAIN?MAIN
  +--> ?C_INITSEG

?PR?MAIN?MAIN                             -----    -----
  +--> ?PR?CONFIGURA_SERIAL?MAIN
  +--> ?PR?LCD_INIT?MAIN
  +--> ?PR?CLEAR_LCD?MAIN
  +--> ?PR?_CLEAR_STRING?MAIN
  +--> ?CO?MAIN
  +--> ?PR?_ESCREVE_MENSAGEM?MAIN
  +--> ?PR?_TRANSICAO_ESTADO?MAIN
  +--> ?PR?_LE_NUMERO?MAIN
  +--> ?PR?_SOLICITA_SENADOR?MAIN
  +--> ?PR?_SOLICITA_GOVERNADOR?MAIN
  +--> ?PR?_SOLICITA_PRESIDENTE?MAIN
  +--> ?PR?LE_TECLADO?MAIN

BL51 BANKED LINKER/LOCATER V6.22                                                      05/28/2018  10:09:17  PAGE 3


?PR?LCD_INIT?MAIN                         -----    -----
  +--> ?PR?_ESCREVE_COMANDO?MAIN
  +--> ?PR?ATRASO_CLEAR?MAIN

?PR?_ESCREVE_COMANDO?MAIN                 -----    -----
  +--> ?PR?ATRASO?MAIN

?PR?CLEAR_LCD?MAIN                        -----    -----
  +--> ?PR?_ESCREVE_COMANDO?MAIN
  +--> ?PR?ATRASO_CLEAR?MAIN

?PR?_CLEAR_STRING?MAIN                    0067H    0003H

?PR?_ESCREVE_MENSAGEM?MAIN                0067H    0003H
  +--> ?PR?_ESCREVE_LCD?MAIN
  +--> ?PR?ATRASO?MAIN

?PR?_ESCREVE_LCD?MAIN                     -----    -----
  +--> ?PR?ATRASO?MAIN

?PR?_TRANSICAO_ESTADO?MAIN                -----    -----
  +--> ?PR?CLEAR_LCD?MAIN
  +--> ?CO?MAIN
  +--> ?PR?_ESCREVE_MENSAGEM?MAIN
  +--> ?PR?_CLEAR_STRING?MAIN

?PR?_LE_NUMERO?MAIN                       -----    -----
  +--> ?PR?LE_TECLADO?MAIN
  +--> ?PR?_ESCREVE_LCD?MAIN

?PR?LE_TECLADO?MAIN                       -----    -----
  +--> ?PR?VARREDURA?MAIN

?PR?VARREDURA?MAIN                        -----    -----
  +--> ?PR?_DEBOUNCING?MAIN

?PR?_DEBOUNCING?MAIN                      -----    -----
  +--> ?PR?ATRASO_1M?MAIN

?PR?_SOLICITA_SENADOR?MAIN                0067H    0006H
  +--> ?PR?_ESCREVE_SERIAL?MAIN

?PR?_ESCREVE_SERIAL?MAIN                  0070H    0003H
  +--> ?PR?_NUMBER_TO_CHAR?MAIN

?PR?_SOLICITA_GOVERNADOR?MAIN             0067H    0006H
  +--> ?PR?_ESCREVE_SERIAL?MAIN

?PR?_SOLICITA_PRESIDENTE?MAIN             0067H    0006H
  +--> ?PR?_ESCREVE_SERIAL?MAIN

*** NEW ROOT ***************************************************

?PR?TRATA_INTERRUPCAO_SERIAL?MAIN         -----    -----
  +--> ?PR?TRATA_DADOS?MAIN
  +--> ?PR?CLEAR_FIFO?MAIN
  +--> ?PR?LE_PARAMETROS?MAIN
BL51 BANKED LINKER/LOCATER V6.22                                                      05/28/2018  10:09:17  PAGE 4



?PR?TRATA_DADOS?MAIN                      -----    -----
  +--> ?CO?MAIN
  +--> ?PR?_ESCREVE_SERIAL?MAIN

?PR?LE_PARAMETROS?MAIN                    -----    -----
  +--> ?CO?MAIN
  +--> ?PR?_ESCREVE_SERIAL?MAIN
  +--> ?PR?_COPIA_STRING?MAIN

?PR?_COPIA_STRING?MAIN                    0070H    0007H



IGNORED SEGMENTS:
   ?DT?_LEN_STRING?MAIN
   ?DT?_INICIALIZA_STRING?MAIN
   ?DT?ENVIA_BOLETIM?MAIN
   ?DT?INICIALIZA_STRUCTS?MAIN



SYMBOL TABLE OF MODULE:  teste_sdcc (?C_STARTUP)

  VALUE           TYPE          NAME
  ----------------------------------

  -------         MODULE        ?C_STARTUP
  C:1154H         SEGMENT       ?C_C51STARTUP
  I:009EH         SEGMENT       ?STACK
  C:0000H         PUBLIC        ?C_STARTUP
  D:00E0H         SYMBOL        ACC
  D:00F0H         SYMBOL        B
  D:0083H         SYMBOL        DPH
  D:0082H         SYMBOL        DPL
  N:0000H         SYMBOL        IBPSTACK
  N:0100H         SYMBOL        IBPSTACKTOP
  N:0080H         SYMBOL        IDATALEN
  C:1157H         SYMBOL        IDATALOOP
  N:0000H         SYMBOL        PBPSTACK
  N:0100H         SYMBOL        PBPSTACKTOP
  N:0000H         SYMBOL        PDATALEN
  N:0000H         SYMBOL        PDATASTART
  N:0000H         SYMBOL        PPAGE
  N:0000H         SYMBOL        PPAGEENABLE
  D:00A0H         SYMBOL        PPAGE_SFR
  D:0081H         SYMBOL        SP
  C:1154H         SYMBOL        STARTUP1
  N:0000H         SYMBOL        XBPSTACK
  N:0000H         SYMBOL        XBPSTACKTOP
  N:0000H         SYMBOL        XDATALEN
  N:0000H         SYMBOL        XDATASTART
  C:0000H         LINE#         126
  C:1154H         LINE#         133
  C:1156H         LINE#         134
  C:1157H         LINE#         135
  C:1158H         LINE#         136
BL51 BANKED LINKER/LOCATER V6.22                                                      05/28/2018  10:09:17  PAGE 5


  C:115AH         LINE#         185
  C:115DH         LINE#         196
  -------         ENDMOD        ?C_STARTUP

  -------         MODULE        MAIN
  C:0000H         SYMBOL        _ICE_DUMMY_
  I:0080H         PUBLIC        pacote
  D:0080H         PUBLIC        P0
  D:0090H         PUBLIC        P1
  D:00B0H         PUBLIC        P3
  D:000EH         PUBLIC        estado
  C:14EBH         PUBLIC        _clear_string
  B:00A8H.7       PUBLIC        EA
  C:14ADH         PUBLIC        _copia_string
  D:000FH         PUBLIC        respostaPC
  C:16DFH         PUBLIC        atraso_1m
  C:11E0H         PUBLIC        trata_dados
  C:170BH         PUBLIC        atraso
  D:00A8H         PUBLIC        IE
  C:1677H         PUBLIC        clear_FIFO
  C:1757H         PUBLIC        le_teclado
  D:0010H         PUBLIC        sminuto
  B:00A8H.4       PUBLIC        ES
  C:10C7H         PUBLIC        trata_interrupcao_serial
  D:00B8H         PUBLIC        IP
  C:1734H         PUBLIC        configura_relogio
  C:1748H         PUBLIC        _maior
  B:0098H.0       PUBLIC        RI
  B:0098H.1       PUBLIC        TI
  C:177CH         PUBLIC        clear_lcd
  C:154DH         PUBLIC        _inicializa_string
  D:0013H         PUBLIC        shora
  D:0016H         PUBLIC        minuto
  C:0BEAH         PUBLIC        inicializa_structs
  D:00CBH         PUBLIC        RCAP2H
  C:1720H         PUBLIC        _debouncing
  C:15A3H         PUBLIC        _escreve_mensagem
  B:00B0H.6       PUBLIC        RS
  C:1765H         PUBLIC        _escreve_LCD
  D:00CAH         PUBLIC        RCAP2L
  C:0D25H         PUBLIC        main
  C:16F5H         PUBLIC        configura_serial
  D:0017H         PUBLIC        hora
  C:12CBH         PUBLIC        _transicao_estado
  C:15C9H         PUBLIC        _solicita_senador
  D:0018H         PUBLIC        urna_ativa
  D:0099H         PUBLIC        SBUF
  D:0098H         PUBLIC        SCON
  D:0089H         PUBLIC        TMOD
  D:0088H         PUBLIC        TCON
  C:1436H         PUBLIC        atualiza_relogio
  C:1771H         PUBLIC        _escreve_comando
  X:0000H         PUBLIC        presidente
  C:1657H         PUBLIC        _len_string
  X:0122H         PUBLIC        governador
  B:00B0H.7       PUBLIC        E
  B:0088H.5       PUBLIC        TF0
BL51 BANKED LINKER/LOCATER V6.22                                                      05/28/2018  10:09:17  PAGE 6


  B:00A8H.5       PUBLIC        ET2
  C:1576H         PUBLIC        _le_numero
  B:00C8H.7       PUBLIC        TF2
  D:008CH         PUBLIC        TH0
  D:008DH         PUBLIC        TH1
  D:0019H         PUBLIC        fifo_recepcao
  D:00CDH         PUBLIC        TH2
  D:008AH         PUBLIC        TL0
  D:008BH         PUBLIC        TL1
  C:1474H         PUBLIC        _number_to_char
  C:0FF5H         PUBLIC        varredura
  C:0EBBH         PUBLIC        codigo_eleitor
  D:00CCH         PUBLIC        TL2
  C:0800H         PUBLIC        varredura_candidatos
  C:140FH         PUBLIC        _escreve_serial
  B:0088H.4       PUBLIC        TR0
  B:0088H.6       PUBLIC        TR1
  B:00C8H.2       PUBLIC        TR2
  C:1396H         PUBLIC        sound_buzzer_voto
  D:0037H         PUBLIC        c
  C:126CH         PUBLIC        _compara_string
  D:0038H         PUBLIC        d
  B:00B0H.3       PUBLIC        BUZZER
  C:0A8AH         PUBLIC        envia_boletim
  D:00C8H         PUBLIC        T2CON
  C:1692H         PUBLIC        clear_pacote
  C:16ADH         PUBLIC        LCD_init
  X:0244H         PUBLIC        senador
  D:003FH         PUBLIC        OLU
  B:0080H.0       PUBLIC        C1
  C:1517H         PUBLIC        sound_buzzer_teclado
  B:0080H.1       PUBLIC        C2
  B:0080H.2       PUBLIC        C3
  C:133BH         PUBLIC        le_parametros
  C:1611H         PUBLIC        _solicita_presidente
  C:16C7H         PUBLIC        atraso_clear
  D:0040H         PUBLIC        segundo
  D:00D0H         PUBLIC        PSW
  C:15EDH         PUBLIC        _solicita_governador
  D:0041H         PUBLIC        cartao
  -------         PROC          ATRASO
  C:170BH         LINE#         133
  C:170BH         LINE#         135
  C:170DH         LINE#         136
  C:170FH         LINE#         137
  C:1712H         LINE#         138
  C:1715H         LINE#         141
  C:1718H         LINE#         142
  C:171AH         LINE#         143
  C:171DH         LINE#         144
  C:171FH         LINE#         145
  -------         ENDPROC       ATRASO
  -------         PROC          ATRASO_CLEAR
  C:16C7H         LINE#         146
  C:16C7H         LINE#         148
  C:16C9H         LINE#         149
  C:16CBH         LINE#         150
BL51 BANKED LINKER/LOCATER V6.22                                                      05/28/2018  10:09:17  PAGE 7


  C:16CEH         LINE#         151
  C:16D1H         LINE#         154
  C:16D4H         LINE#         155
  C:16D7H         LINE#         156
  C:16D9H         LINE#         157
  C:16DCH         LINE#         158
  C:16DEH         LINE#         159
  -------         ENDPROC       ATRASO_CLEAR
  -------         PROC          _ESCREVE_COMANDO
  D:0007H         SYMBOL        com
  C:1771H         LINE#         161
  C:1771H         LINE#         163
  C:1773H         LINE#         164
  C:1775H         LINE#         165
  C:1777H         LINE#         166
  C:1779H         LINE#         167
  -------         ENDPROC       _ESCREVE_COMANDO
  -------         PROC          LCD_INIT
  C:16ADH         LINE#         171
  C:16ADH         LINE#         173
  C:16B2H         LINE#         174
  C:16B5H         LINE#         175
  C:16BAH         LINE#         176
  C:16BFH         LINE#         177
  C:16C4H         LINE#         178
  -------         ENDPROC       LCD_INIT
  -------         PROC          _ESCREVE_LCD
  D:0007H         SYMBOL        X
  C:1765H         LINE#         185
  C:1765H         LINE#         186
  C:1767H         LINE#         187
  C:1769H         LINE#         189
  C:176BH         LINE#         190
  C:176EH         LINE#         191
  C:1770H         LINE#         192
  -------         ENDPROC       _ESCREVE_LCD
  -------         PROC          _ESCREVE_MENSAGEM
  D:0067H         SYMBOL        mensagem
  -------         DO            
  D:0006H         SYMBOL        i
  -------         ENDDO         
  C:15A3H         LINE#         195
  C:15A9H         LINE#         198
  C:15C0H         LINE#         199
  C:15C3H         LINE#         200
  C:15C6H         LINE#         201
  -------         ENDPROC       _ESCREVE_MENSAGEM
  -------         PROC          CLEAR_LCD
  C:177CH         LINE#         205
  C:177CH         LINE#         206
  C:1781H         LINE#         207
  -------         ENDPROC       CLEAR_LCD
  -------         PROC          ATRASO_1M
  C:16DFH         LINE#         215
  C:16DFH         LINE#         217
  C:16E1H         LINE#         218
  C:16E3H         LINE#         219
BL51 BANKED LINKER/LOCATER V6.22                                                      05/28/2018  10:09:17  PAGE 8


  C:16E6H         LINE#         220
  C:16E9H         LINE#         223
  C:16ECH         LINE#         224
  C:16EFH         LINE#         225
  C:16F1H         LINE#         226
  C:16F4H         LINE#         228
  -------         ENDPROC       ATRASO_1M
  -------         PROC          _DEBOUNCING
  D:0007H         SYMBOL        tecla
  -------         DO            
  D:0006H         SYMBOL        i
  -------         ENDDO         
  C:1720H         LINE#         230
  C:1720H         LINE#         232
  C:1722H         LINE#         233
  C:1722H         LINE#         235
  C:1727H         LINE#         236
  C:172AH         LINE#         237
  C:172AH         LINE#         238
  C:172DH         LINE#         240
  C:1731H         LINE#         241
  C:1733H         LINE#         243
  -------         ENDPROC       _DEBOUNCING
  -------         PROC          VARREDURA
  C:0FF5H         LINE#         245
  C:0FF5H         LINE#         246
  C:0FF7H         LINE#         247
  C:0FF9H         LINE#         248
  C:0FFBH         LINE#         249
  C:100EH         LINE#         250
  C:100EH         LINE#         251
  C:1016H         LINE#         252
  C:1019H         LINE#         253
  C:1019H         LINE#         254
  C:1021H         LINE#         255
  C:1024H         LINE#         256
  C:1024H         LINE#         257
  C:102CH         LINE#         258
  C:102FH         LINE#         259
  C:102FH         LINE#         260
  C:1037H         LINE#         261
  C:103AH         LINE#         262
  C:103AH         LINE#         264
  C:103CH         LINE#         265
  C:103EH         LINE#         266
  C:1040H         LINE#         267
  C:1053H         LINE#         268
  C:1053H         LINE#         269
  C:105BH         LINE#         270
  C:105EH         LINE#         271
  C:105EH         LINE#         272
  C:1066H         LINE#         273
  C:1069H         LINE#         274
  C:1069H         LINE#         275
  C:1071H         LINE#         276
  C:1074H         LINE#         277
  C:1074H         LINE#         278
BL51 BANKED LINKER/LOCATER V6.22                                                      05/28/2018  10:09:17  PAGE 9


  C:107CH         LINE#         279
  C:107FH         LINE#         280
  C:107FH         LINE#         282
  C:1081H         LINE#         283
  C:1083H         LINE#         284
  C:1085H         LINE#         285
  C:1098H         LINE#         286
  C:1098H         LINE#         287
  C:10A0H         LINE#         288
  C:10A3H         LINE#         289
  C:10A3H         LINE#         290
  C:10ABH         LINE#         291
  C:10AEH         LINE#         292
  C:10AEH         LINE#         293
  C:10B6H         LINE#         294
  C:10B9H         LINE#         295
  C:10B9H         LINE#         296
  C:10C1H         LINE#         297
  C:10C4H         LINE#         298
  C:10C4H         LINE#         300
  C:10C6H         LINE#         301
  -------         ENDPROC       VARREDURA
  -------         PROC          LE_TECLADO
  -------         DO            
  D:0008H         SYMBOL        tecla
  D:0007H         SYMBOL        tecla_atual
  -------         ENDDO         
  C:1757H         LINE#         304
  C:1757H         LINE#         308
  C:175AH         LINE#         310
  C:175FH         LINE#         311
  C:1761H         LINE#         314
  C:1762H         LINE#         315
  C:1762H         LINE#         316
  C:1764H         LINE#         317
  -------         ENDPROC       LE_TECLADO
  -------         PROC          _LEN_STRING
  D:0000H         SYMBOL        string
  -------         DO            
  D:0007H         SYMBOL        i
  -------         ENDDO         
  C:1657H         LINE#         323
  C:165DH         LINE#         326
  C:1676H         LINE#         327
  C:1676H         LINE#         329
  -------         ENDPROC       _LEN_STRING
  -------         PROC          _MAIOR
  D:0007H         SYMBOL        arg1
  D:0005H         SYMBOL        arg2
  C:1748H         LINE#         331
  C:1748H         LINE#         332
  C:1754H         LINE#         333
  C:1756H         LINE#         334
  -------         ENDPROC       _MAIOR
  C:125DH         SYMBOL        L?0256
  -------         PROC          L?0255
  -------         ENDPROC       L?0255
BL51 BANKED LINKER/LOCATER V6.22                                                      05/28/2018  10:09:17  PAGE 10


  C:125DH         SYMBOL        L?0256
  -------         PROC          _COMPARA_STRING
  D:0077H         SYMBOL        string1
  D:007AH         SYMBOL        string2
  -------         DO            
  D:007DH         SYMBOL        i
  D:007EH         SYMBOL        out
  D:007FH         SYMBOL        lim
  -------         ENDDO         
  C:126CH         LINE#         336
  C:1272H         LINE#         341
  C:1275H         LINE#         343
  C:128CH         LINE#         345
  C:129CH         LINE#         347
  C:12C1H         LINE#         348
  C:12C4H         LINE#         349
  C:12C4H         LINE#         350
  C:12C8H         LINE#         351
  C:12CAH         LINE#         352
  -------         ENDPROC       _COMPARA_STRING
  -------         PROC          _COPIA_STRING
  D:0070H         SYMBOL        alvo
  D:0073H         SYMBOL        valor
  -------         DO            
  D:0076H         SYMBOL        i
  -------         ENDDO         
  C:14ADH         LINE#         354
  C:14B3H         LINE#         357
  C:14E4H         LINE#         359
  -------         ENDPROC       _COPIA_STRING
  -------         PROC          _NUMBER_TO_CHAR
  D:0001H         SYMBOL        out
  D:0005H         SYMBOL        in
  C:1474H         LINE#         361
  C:1474H         LINE#         363
  C:147CH         LINE#         364
  C:1480H         LINE#         365
  C:1481H         LINE#         366
  C:1483H         LINE#         367
  C:1483H         LINE#         368
  C:1492H         LINE#         369
  C:14ACH         LINE#         370
  C:14ACH         LINE#         372
  -------         ENDPROC       _NUMBER_TO_CHAR
  C:1547H         SYMBOL        L?0254
  -------         PROC          L?0253
  -------         ENDPROC       L?0253
  C:1547H         SYMBOL        L?0254
  -------         PROC          _INICIALIZA_STRING
  D:0000H         SYMBOL        string
  D:0005H         SYMBOL        len
  -------         DO            
  D:0007H         SYMBOL        i
  -------         ENDDO         
  C:154DH         LINE#         375
  C:1553H         LINE#         378
  C:1560H         LINE#         379
BL51 BANKED LINKER/LOCATER V6.22                                                      05/28/2018  10:09:17  PAGE 11


  C:1572H         LINE#         380
  C:1575H         LINE#         382
  -------         ENDPROC       _INICIALIZA_STRING
  C:14E5H         SYMBOL        L?0258
  -------         PROC          L?0257
  -------         ENDPROC       L?0257
  C:14E5H         SYMBOL        L?0258
  -------         PROC          _CLEAR_STRING
  D:0067H         SYMBOL        string
  -------         DO            
  D:0007H         SYMBOL        i
  -------         ENDDO         
  C:14EBH         LINE#         385
  C:14F1H         LINE#         388
  C:1507H         LINE#         389
  C:1513H         LINE#         390
  C:1516H         LINE#         392
  -------         ENDPROC       _CLEAR_STRING
  C:13EEH         SYMBOL        L?0252
  -------         PROC          L?0251
  -------         ENDPROC       L?0251
  C:13EEH         SYMBOL        L?0252
  -------         PROC          _ESCREVE_SERIAL
  D:0070H         SYMBOL        mensagem
  -------         DO            
  D:0007H         SYMBOL        i
  -------         ENDDO         
  C:140FH         LINE#         398
  C:1415H         LINE#         400
  C:142BH         LINE#         401
  C:142DH         LINE#         402
  C:1430H         LINE#         403
  C:1432H         LINE#         404
  C:1435H         LINE#         405
  -------         ENDPROC       _ESCREVE_SERIAL
  -------         PROC          CLEAR_FIFO
  -------         DO            
  D:0007H         SYMBOL        i
  -------         ENDDO         
  C:1677H         LINE#         407
  C:1677H         LINE#         409
  C:1691H         LINE#         411
  -------         ENDPROC       CLEAR_FIFO
  -------         PROC          LE_PARAMETROS
  C:133BH         LINE#         413
  C:133BH         LINE#         414
  C:1341H         LINE#         415
  C:1353H         LINE#         416
  C:1353H         LINE#         417
  C:1356H         LINE#         418
  C:1359H         LINE#         419
  C:1362H         LINE#         422
  C:1362H         LINE#         423
  C:1368H         LINE#         424
  C:1368H         LINE#         425
  C:1368H         LINE#         426
  C:136AH         LINE#         428
BL51 BANKED LINKER/LOCATER V6.22                                                      05/28/2018  10:09:17  PAGE 12


  C:136AH         LINE#         429
  C:1370H         LINE#         430
  C:1379H         LINE#         431
  C:1379H         LINE#         432
  C:137BH         LINE#         435
  C:137BH         LINE#         436
  C:1380H         LINE#         437
  C:1392H         LINE#         438
  C:1395H         LINE#         439
  C:1395H         LINE#         441
  C:1395H         LINE#         442
  C:1395H         LINE#         443
  -------         ENDPROC       LE_PARAMETROS
  -------         PROC          TRATA_DADOS
  C:11E0H         LINE#         448
  C:11E0H         LINE#         450
  C:11E6H         LINE#         452
  C:120DH         LINE#         453
  C:120DH         LINE#         455
  C:1210H         LINE#         456
  C:1216H         LINE#         457
  C:1218H         LINE#         458
  C:1218H         LINE#         460
  C:121BH         LINE#         461
  C:1224H         LINE#         462
  C:1227H         LINE#         463
  C:1227H         LINE#         466
  C:122AH         LINE#         467
  C:122AH         LINE#         469
  C:122DH         LINE#         470
  C:122DH         LINE#         472
  C:1232H         LINE#         473
  C:1235H         LINE#         474
  C:1235H         LINE#         475
  C:1238H         LINE#         476
  C:1238H         LINE#         478
  C:123DH         LINE#         479
  C:1240H         LINE#         480
  C:1240H         LINE#         481
  C:1243H         LINE#         482
  C:1243H         LINE#         484
  C:1248H         LINE#         485
  C:124BH         LINE#         486
  C:124BH         LINE#         487
  C:124EH         LINE#         488
  C:124EH         LINE#         490
  C:1251H         LINE#         491
  C:1251H         LINE#         493
  C:1254H         LINE#         494
  C:1254H         LINE#         496
  C:1257H         LINE#         497
  C:1257H         LINE#         500
  C:1257H         LINE#         501
  C:1257H         LINE#         502
  C:1259H         LINE#         503
  -------         ENDPROC       TRATA_DADOS
  -------         PROC          CONFIGURA_SERIAL
BL51 BANKED LINKER/LOCATER V6.22                                                      05/28/2018  10:09:17  PAGE 13


  C:16F5H         LINE#         506
  C:16F5H         LINE#         508
  C:16F8H         LINE#         509
  C:16FBH         LINE#         510
  C:16FEH         LINE#         511
  C:1701H         LINE#         512
  C:1703H         LINE#         514
  C:1706H         LINE#         515
  C:1708H         LINE#         516
  C:170AH         LINE#         517
  -------         ENDPROC       CONFIGURA_SERIAL
  -------         PROC          TRATA_INTERRUPCAO_SERIAL
  -------         DO            
  D:0009H         SYMBOL        pos
  D:000AH         SYMBOL        l_final
  D:000BH         SYMBOL        lendo_par
  D:0004H         SYMBOL        add
  -------         ENDDO         
  C:10C7H         LINE#         519
  C:10E2H         LINE#         522
  C:10E5H         LINE#         523
  C:10E7H         LINE#         524
  C:10EEH         LINE#         525
  C:10F0H         LINE#         527
  C:10F6H         LINE#         530
  C:10FAH         LINE#         531
  C:10FFH         LINE#         535
  C:1102H         LINE#         536
  C:1105H         LINE#         537
  C:1108H         LINE#         538
  C:1108H         LINE#         539
  C:110AH         LINE#         543
  C:110DH         LINE#         544
  C:1110H         LINE#         545
  C:1112H         LINE#         546
  C:1114H         LINE#         549
  C:1114H         LINE#         550
  C:1115H         LINE#         551
  C:1115H         LINE#         552
  C:1115H         LINE#         553
  C:1117H         LINE#         554
  C:111CH         LINE#         555
  C:111CH         LINE#         556
  C:1122H         LINE#         557
  C:1125H         LINE#         558
  C:1127H         LINE#         559
  C:112CH         LINE#         560
  C:112FH         LINE#         561
  C:1132H         LINE#         562
  C:1135H         LINE#         563
  C:1138H         LINE#         564
  C:113BH         LINE#         565
  C:113BH         LINE#         566
  C:113BH         LINE#         567
  C:113BH         LINE#         568
  -------         ENDPROC       TRATA_INTERRUPCAO_SERIAL
  -------         PROC          _SOLICITA_SENADOR
BL51 BANKED LINKER/LOCATER V6.22                                                      05/28/2018  10:09:17  PAGE 14


  D:0001H         SYMBOL        codigo
  -------         DO            
  D:0067H         SYMBOL        mensagem
  -------         ENDDO         
  C:15C9H         LINE#         572
  C:15C9H         LINE#         574
  C:15CCH         LINE#         575
  C:15CFH         LINE#         576
  C:15D2H         LINE#         577
  C:15D7H         LINE#         578
  C:15DFH         LINE#         579
  C:15E2H         LINE#         580
  C:15E5H         LINE#         581
  -------         ENDPROC       _SOLICITA_SENADOR
  -------         PROC          _SOLICITA_GOVERNADOR
  D:0001H         SYMBOL        codigo
  -------         DO            
  D:0067H         SYMBOL        mensagem
  -------         ENDDO         
  C:15EDH         LINE#         584
  C:15EDH         LINE#         586
  C:15F0H         LINE#         587
  C:15F3H         LINE#         588
  C:15F6H         LINE#         589
  C:15FBH         LINE#         590
  C:1603H         LINE#         591
  C:1606H         LINE#         592
  C:1609H         LINE#         593
  -------         ENDPROC       _SOLICITA_GOVERNADOR
  -------         PROC          _SOLICITA_PRESIDENTE
  D:0001H         SYMBOL        codigo
  -------         DO            
  D:0067H         SYMBOL        mensagem
  -------         ENDDO         
  C:1611H         LINE#         596
  C:1611H         LINE#         598
  C:1614H         LINE#         599
  C:1617H         LINE#         600
  C:161AH         LINE#         601
  C:161FH         LINE#         602
  C:1627H         LINE#         603
  C:162AH         LINE#         604
  C:162DH         LINE#         605
  -------         ENDPROC       _SOLICITA_PRESIDENTE
  -------         PROC          CONFIGURA_RELOGIO
  C:1734H         LINE#         612
  C:1734H         LINE#         613
  C:1737H         LINE#         614
  C:1739H         LINE#         615
  C:173CH         LINE#         616
  C:173EH         LINE#         617
  C:1741H         LINE#         618
  C:1743H         LINE#         620
  C:1745H         LINE#         621
  C:1747H         LINE#         622
  -------         ENDPROC       CONFIGURA_RELOGIO
  -------         PROC          ATUALIZA_RELOGIO
BL51 BANKED LINKER/LOCATER V6.22                                                      05/28/2018  10:09:17  PAGE 15


  -------         DO            
  D:000CH         SYMBOL        count
  -------         ENDDO         
  C:1436H         LINE#         624
  C:143AH         LINE#         627
  C:143CH         LINE#         629
  C:143EH         LINE#         631
  C:1447H         LINE#         632
  C:144AH         LINE#         633
  C:144CH         LINE#         634
  C:1454H         LINE#         635
  C:1457H         LINE#         636
  C:1459H         LINE#         637
  C:1461H         LINE#         638
  C:1464H         LINE#         639
  C:146CH         LINE#         640
  C:146FH         LINE#         641
  C:146FH         LINE#         642
  C:146FH         LINE#         643
  C:146FH         LINE#         644
  C:146FH         LINE#         647
  -------         ENDPROC       ATUALIZA_RELOGIO
  -------         PROC          SOUND_BUZZER_TECLADO
  -------         DO            
  D:0006H         SYMBOL        i
  -------         ENDDO         
  C:1517H         LINE#         654
  C:1517H         LINE#         658
  C:151AH         LINE#         659
  C:151CH         LINE#         660
  C:151EH         LINE#         661
  C:1521H         LINE#         662
  C:1524H         LINE#         663
  C:1527H         LINE#         664
  C:152AH         LINE#         665
  C:152CH         LINE#         666
  C:152EH         LINE#         667
  C:152EH         LINE#         668
  C:1531H         LINE#         669
  C:1534H         LINE#         670
  C:1537H         LINE#         671
  C:1539H         LINE#         672
  C:153BH         LINE#         673
  C:1546H         LINE#         674
  -------         ENDPROC       SOUND_BUZZER_TECLADO
  -------         PROC          SOUND_BUZZER_VOTO
  -------         DO            
  D:0004H         SYMBOL        i
  D:0007H         SYMBOL        n
  -------         ENDDO         
  C:1396H         LINE#         676
  C:1396H         LINE#         684
  C:1398H         LINE#         685
  C:139AH         LINE#         686
  C:139DH         LINE#         687
  C:13A0H         LINE#         688
  C:13A3H         LINE#         689
BL51 BANKED LINKER/LOCATER V6.22                                                      05/28/2018  10:09:17  PAGE 16


  C:13A6H         LINE#         690
  C:13A8H         LINE#         691
  C:13AAH         LINE#         692
  C:13ACH         LINE#         694
  C:13AFH         LINE#         695
  C:13B2H         LINE#         696
  C:13B5H         LINE#         697
  C:13B8H         LINE#         698
  C:13BAH         LINE#         699
  C:13BCH         LINE#         700
  C:13C7H         LINE#         702
  C:13CAH         LINE#         703
  C:13CDH         LINE#         704
  C:13D0H         LINE#         705
  C:13D3H         LINE#         706
  C:13D5H         LINE#         707
  C:13D7H         LINE#         708
  C:13E2H         LINE#         709
  C:13E6H         LINE#         710
  -------         ENDPROC       SOUND_BUZZER_VOTO
  -------         PROC          CLEAR_PACOTE
  -------         DO            
  D:0007H         SYMBOL        i
  -------         ENDDO         
  C:1692H         LINE#         718
  C:1692H         LINE#         721
  C:16A3H         LINE#         722
  C:16A9H         LINE#         723
  C:16ACH         LINE#         725
  -------         ENDPROC       CLEAR_PACOTE
  -------         PROC          VARREDURA_CANDIDATOS
  -------         DO            
  D:0043H         SYMBOL        d0
  D:0044H         SYMBOL        d1
  D:0045H         SYMBOL        d
  D:0048H         SYMBOL        comprimento
  D:0049H         SYMBOL        i
  D:004AH         SYMBOL        inicio_par
  D:004BH         SYMBOL        nome
  D:005FH         SYMBOL        partido
  D:0064H         SYMBOL        pos_sen
  D:0065H         SYMBOL        pos_gov
  D:0066H         SYMBOL        pos_pres
  -------         ENDDO         
  C:0800H         LINE#         727
  C:0800H         LINE#         734
  C:0807H         LINE#         736
  C:080AH         LINE#         738
  C:080DH         LINE#         739
  C:0810H         LINE#         741
  C:0813H         LINE#         742
  C:0816H         LINE#         744
  C:081EH         LINE#         745
  C:0822H         LINE#         749
  C:0827H         LINE#         751
  C:0835H         LINE#         752
  C:083CH         LINE#         753
BL51 BANKED LINKER/LOCATER V6.22                                                      05/28/2018  10:09:17  PAGE 17


  C:0840H         LINE#         754
  C:0845H         LINE#         755
  C:0853H         LINE#         756
  C:085AH         LINE#         757
  C:085EH         LINE#         760
  C:0864H         LINE#         761
  C:088CH         LINE#         762
  C:08B0H         LINE#         763
  C:08D4H         LINE#         764
  C:08D4H         LINE#         765
  C:08DDH         LINE#         766
  C:08E6H         LINE#         767
  C:08EFH         LINE#         769
  C:08F8H         LINE#         771
  C:08FCH         LINE#         774
  C:0901H         LINE#         776
  C:090FH         LINE#         777
  C:0916H         LINE#         778
  C:091AH         LINE#         779
  C:091FH         LINE#         780
  C:092DH         LINE#         781
  C:0934H         LINE#         782
  C:0938H         LINE#         784
  C:0938H         LINE#         786
  C:093EH         LINE#         787
  C:0966H         LINE#         788
  C:098AH         LINE#         789
  C:09AEH         LINE#         790
  C:09AEH         LINE#         793
  C:09B7H         LINE#         795
  C:09BBH         LINE#         798
  C:09C0H         LINE#         800
  C:09CEH         LINE#         801
  C:09D5H         LINE#         802
  C:09D9H         LINE#         803
  C:09DEH         LINE#         804
  C:09ECH         LINE#         805
  C:09F3H         LINE#         806
  C:09F7H         LINE#         808
  C:09F7H         LINE#         810
  C:09FDH         LINE#         811
  C:0A25H         LINE#         812
  C:0A49H         LINE#         813
  C:0A6DH         LINE#         814
  C:0A6DH         LINE#         816
  C:0A7BH         LINE#         817
  C:0A89H         LINE#         818
  -------         ENDPROC       VARREDURA_CANDIDATOS
  -------         PROC          ENVIA_BOLETIM
  -------         DO            
  D:0000H         SYMBOL        i
  D:0001H         SYMBOL        votos
  -------         ENDDO         
  C:0A8AH         LINE#         820
  C:0A8AH         LINE#         825
  C:0A8DH         LINE#         828
  C:0A96H         LINE#         830
BL51 BANKED LINKER/LOCATER V6.22                                                      05/28/2018  10:09:17  PAGE 18


  C:0ABDH         LINE#         832
  C:0AC6H         LINE#         833
  C:0ADFH         LINE#         834
  C:0AE8H         LINE#         835
  C:0AEBH         LINE#         836
  C:0AEEH         LINE#         837
  C:0AF7H         LINE#         839
  C:0AF7H         LINE#         841
  C:0B00H         LINE#         843
  C:0B27H         LINE#         845
  C:0B30H         LINE#         846
  C:0B49H         LINE#         847
  C:0B52H         LINE#         848
  C:0B55H         LINE#         849
  C:0B58H         LINE#         850
  C:0B61H         LINE#         852
  C:0B61H         LINE#         854
  C:0B6AH         LINE#         856
  C:0B91H         LINE#         858
  C:0B9AH         LINE#         859
  C:0BB3H         LINE#         860
  C:0BBCH         LINE#         861
  C:0BC6H         LINE#         862
  C:0BC9H         LINE#         863
  C:0BD2H         LINE#         865
  C:0BD2H         LINE#         867
  C:0BDBH         LINE#         868
  C:0BE9H         LINE#         869
  -------         ENDPROC       ENVIA_BOLETIM
  -------         PROC          INICIALIZA_STRUCTS
  -------         DO            
  D:0000H         SYMBOL        i
  -------         ENDDO         
  C:0BEAH         LINE#         871
  C:0BEAH         LINE#         874
  C:0BEDH         LINE#         876
  C:0C04H         LINE#         877
  C:0C1FH         LINE#         878
  C:0C3AH         LINE#         879
  C:0C56H         LINE#         881
  C:0C64H         LINE#         882
  C:0C7FH         LINE#         883
  C:0C9AH         LINE#         884
  C:0CB6H         LINE#         886
  C:0CC4H         LINE#         887
  C:0CDFH         LINE#         888
  C:0CFAH         LINE#         889
  C:0D16H         LINE#         891
  C:0D24H         LINE#         893
  -------         ENDPROC       INICIALIZA_STRUCTS
  -------         PROC          _LE_NUMERO
  D:0005H         SYMBOL        n
  -------         DO            
  D:000DH         SYMBOL        i
  D:0006H         SYMBOL        c
  -------         ENDDO         
  C:1576H         LINE#         895
BL51 BANKED LINKER/LOCATER V6.22                                                      05/28/2018  10:09:17  PAGE 19


  C:1578H         LINE#         898
  C:157DH         LINE#         899
  C:1580H         LINE#         900
  C:158CH         LINE#         901
  C:158FH         LINE#         902
  C:1596H         LINE#         903
  C:1598H         LINE#         904
  C:159AH         LINE#         905
  C:159DH         LINE#         906
  C:15A0H         LINE#         907
  C:15A0H         LINE#         908
  C:15A0H         LINE#         909
  C:15A2H         LINE#         910
  -------         ENDPROC       _LE_NUMERO
  -------         PROC          _TRANSICAO_ESTADO
  D:0007H         SYMBOL        et
  C:12CBH         LINE#         913
  C:12CBH         LINE#         914
  C:12DCH         LINE#         915
  C:12DFH         LINE#         916
  C:12E8H         LINE#         917
  C:12EBH         LINE#         918
  C:12EEH         LINE#         919
  C:12EFH         LINE#         921
  C:12F2H         LINE#         922
  C:12FBH         LINE#         923
  C:12FEH         LINE#         924
  C:1301H         LINE#         925
  C:1302H         LINE#         927
  C:1305H         LINE#         928
  C:130EH         LINE#         929
  C:1311H         LINE#         930
  C:1314H         LINE#         931
  C:1315H         LINE#         933
  C:1318H         LINE#         934
  C:1321H         LINE#         935
  C:1324H         LINE#         936
  C:1327H         LINE#         937
  C:1328H         LINE#         939
  C:132BH         LINE#         940
  C:1334H         LINE#         941
  C:1337H         LINE#         942
  C:133AH         LINE#         943
  C:133AH         LINE#         945
  C:133AH         LINE#         946
  C:133AH         LINE#         947
  -------         ENDPROC       _TRANSICAO_ESTADO
  -------         PROC          MAIN
  C:0D25H         LINE#         949
  C:0D25H         LINE#         951
  C:0D28H         LINE#         955
  C:0D2BH         LINE#         956
  C:0D2EH         LINE#         957
  C:0D31H         LINE#         966
  C:0D31H         LINE#         975
  C:0D4BH         LINE#         976
  C:0D4EH         LINE#         977
BL51 BANKED LINKER/LOCATER V6.22                                                      05/28/2018  10:09:17  PAGE 20


  C:0D57H         LINE#         978
  C:0D5AH         LINE#         979
  C:0D5AH         LINE#         982
  C:0D77H         LINE#         983
  C:0D7AH         LINE#         984
  C:0D7FH         LINE#         985
  C:0D7FH         LINE#         987
  C:0D83H         LINE#         990
  C:0D98H         LINE#         991
  C:0DA0H         LINE#         993
  C:0DCCH         LINE#         994
  C:0DCEH         LINE#         995
  C:0DCEH         LINE#         996
  C:0DD0H         LINE#         998
  C:0DDBH         LINE#         999
  C:0DE4H         LINE#         1000
  C:0DE6H         LINE#         1001
  C:0DE6H         LINE#         1002
  C:0DE8H         LINE#         1004
  C:0DF3H         LINE#         1005
  C:0DFCH         LINE#         1006
  C:0DFEH         LINE#         1007
  C:0DFEH         LINE#         1008
  C:0E00H         LINE#         1010
  C:0E0BH         LINE#         1011
  C:0E14H         LINE#         1012
  C:0E19H         LINE#         1013
  C:0E19H         LINE#         1014
  C:0E1CH         LINE#         1016
  C:0E25H         LINE#         1017
  C:0E2AH         LINE#         1018
  -------         ENDPROC       MAIN
  -------         ENDMOD        MAIN

  -------         MODULE        ?C?SCDIV
  C:0F15H         PUBLIC        ?C?SCDIV
  -------         ENDMOD        ?C?SCDIV

  -------         MODULE        ?C?CLDPTR
  C:0F37H         PUBLIC        ?C?CLDPTR
  -------         ENDMOD        ?C?CLDPTR

  -------         MODULE        ?C?CLDOPTR
  C:0F50H         PUBLIC        ?C?CLDOPTR
  -------         ENDMOD        ?C?CLDOPTR

  -------         MODULE        ?C?CSTPTR
  C:0F7DH         PUBLIC        ?C?CSTPTR
  -------         ENDMOD        ?C?CSTPTR

  -------         MODULE        ?C?CSTOPTR
  C:0F8FH         PUBLIC        ?C?CSTOPTR
  -------         ENDMOD        ?C?CSTOPTR

  -------         MODULE        ?C?IMUL
  C:0FB1H         PUBLIC        ?C?IMUL
  -------         ENDMOD        ?C?IMUL
BL51 BANKED LINKER/LOCATER V6.22                                                      05/28/2018  10:09:17  PAGE 21



  -------         MODULE        ?C?OFFXADD
  C:0FC3H         PUBLIC        ?C?OFFXADD
  -------         ENDMOD        ?C?OFFXADD

  -------         MODULE        ?C?CCASE
  C:0FCFH         PUBLIC        ?C?CCASE
  -------         ENDMOD        ?C?CCASE

*** WARNING L16: UNCALLED SEGMENT, IGNORED FOR OVERLAY PROCESS
    SEGMENT: ?PR?CONFIGURA_RELOGIO?MAIN

*** WARNING L16: UNCALLED SEGMENT, IGNORED FOR OVERLAY PROCESS
    SEGMENT: ?PR?SOUND_BUZZER_TECLADO?MAIN

*** WARNING L16: UNCALLED SEGMENT, IGNORED FOR OVERLAY PROCESS
    SEGMENT: ?PR?SOUND_BUZZER_VOTO?MAIN

*** WARNING L16: UNCALLED SEGMENT, IGNORED FOR OVERLAY PROCESS
    SEGMENT: ?PR?VARREDURA_CANDIDATOS?MAIN

*** WARNING L16: UNCALLED SEGMENT, IGNORED FOR OVERLAY PROCESS
    SEGMENT: ?PR?ENVIA_BOLETIM?MAIN

*** WARNING L16: UNCALLED SEGMENT, IGNORED FOR OVERLAY PROCESS
    SEGMENT: ?PR?INICIALIZA_STRUCTS?MAIN

*** WARNING L15: MULTIPLE CALL TO SEGMENT
    SEGMENT: ?PR?_ESCREVE_SERIAL?MAIN
    CALLER1: ?C_C51STARTUP
    CALLER2: ?PR?TRATA_INTERRUPCAO_SERIAL?MAIN

*** ERROR L107: ADDRESS SPACE OVERFLOW
    SPACE:   DATA    
    SEGMENT: ?DT?ENVIA_BOLETIM?MAIN
    LENGTH:  0004H

*** ERROR L107: ADDRESS SPACE OVERFLOW
    SPACE:   DATA    
    SEGMENT: ?DT?_LEN_STRING?MAIN
    LENGTH:  0003H

*** ERROR L107: ADDRESS SPACE OVERFLOW
    SPACE:   DATA    
    SEGMENT: ?DT?_INICIALIZA_STRING?MAIN
    LENGTH:  0003H

*** ERROR L107: ADDRESS SPACE OVERFLOW
    SPACE:   DATA    
    SEGMENT: ?DT?INICIALIZA_STRUCTS?MAIN
    LENGTH:  0001H

******************************************************************************
* RESTRICTED VERSION WITH 0800H BYTE CODE SIZE LIMIT; USED: 0E2CH BYTE (177%) *
******************************************************************************

Program Size: data=170.0 xdata=870 code=3981
BL51 BANKED LINKER/LOCATER V6.22                                                      05/28/2018  10:09:17  PAGE 22


LINK/LOCATE RUN COMPLETE.  7 WARNING(S),  4 ERROR(S)

*** WARNING L16: UNCALLED SEGMENT, IGNORED FOR OVERLAY PROCESS
    SEGMENT: ?PR?CONFIGURA_RELOGIO?MAIN

*** WARNING L16: UNCALLED SEGMENT, IGNORED FOR OVERLAY PROCESS
    SEGMENT: ?PR?SOUND_BUZZER_TECLADO?MAIN

*** WARNING L16: UNCALLED SEGMENT, IGNORED FOR OVERLAY PROCESS
    SEGMENT: ?PR?SOUND_BUZZER_VOTO?MAIN

*** WARNING L16: UNCALLED SEGMENT, IGNORED FOR OVERLAY PROCESS
    SEGMENT: ?PR?VARREDURA_CANDIDATOS?MAIN

*** WARNING L16: UNCALLED SEGMENT, IGNORED FOR OVERLAY PROCESS
    SEGMENT: ?PR?ENVIA_BOLETIM?MAIN

*** WARNING L16: UNCALLED SEGMENT, IGNORED FOR OVERLAY PROCESS
    SEGMENT: ?PR?INICIALIZA_STRUCTS?MAIN

*** WARNING L15: MULTIPLE CALL TO SEGMENT
    SEGMENT: ?PR?_ESCREVE_SERIAL?MAIN
    CALLER1: ?C_C51STARTUP
    CALLER2: ?PR?TRATA_INTERRUPCAO_SERIAL?MAIN

*** ERROR L107: ADDRESS SPACE OVERFLOW
    SPACE:   DATA    
    SEGMENT: ?DT?ENVIA_BOLETIM?MAIN
    LENGTH:  0004H

*** ERROR L107: ADDRESS SPACE OVERFLOW
    SPACE:   DATA    
    SEGMENT: ?DT?_LEN_STRING?MAIN
    LENGTH:  0003H

*** ERROR L107: ADDRESS SPACE OVERFLOW
    SPACE:   DATA    
    SEGMENT: ?DT?_INICIALIZA_STRING?MAIN
    LENGTH:  0003H

*** ERROR L107: ADDRESS SPACE OVERFLOW
    SPACE:   DATA    
    SEGMENT: ?DT?INICIALIZA_STRUCTS?MAIN
    LENGTH:  0001H

*** FATAL ERROR L250: CODE SIZE LIMIT IN RESTRICTED VERSION EXCEEDED
    MODULE:  C:\KEIL\C51\LIB\C51S.LIB (-----)
    LIMIT:   0800H BYTES